; Function Attrs: nofree nounwind uwtable
define dso_local range(i32 -1, -2147483648) i32 @printf_ln(ptr noundef readonly captures(none) %0, ...) local_unnamed_addr #19 {
  %2 = alloca [1 x %struct.__va_list_tag], align 16
  call void @llvm.lifetime.start.p0(i64 24, ptr nonnull %2) #25
  call void @llvm.va_start.p0(ptr nonnull %2)
  %3 = load ptr, ptr @stdout, align 8, !tbaa !40, !noalias !42
  %4 = call i32 @vfprintf(ptr noundef %3, ptr noundef %0, ptr noundef nonnull %2) #25
  call void @llvm.va_end.p0(ptr nonnull %2)
  %5 = icmp slt i32 %4, 0
  br i1 %5, label %11, label %6

6:                                                ; preds = %1
  %7 = load ptr, ptr @stdout, align 8, !tbaa !40
  %8 = call i32 @putc(i32 noundef 10, ptr noundef %7)
  %9 = icmp eq i32 %8, -1
  %10 = add nuw nsw i32 %4, 1
  %spec.select = select i1 %9, i32 -1, i32 %10
  br label %11

11:                                               ; preds = %6, %1
  %.0 = phi i32 [ -1, %1 ], [ %spec.select, %6 ]
  call void @llvm.lifetime.end.p0(i64 24, ptr nonnull %2) #25
  ret i32 %.0
}